target datalayout = "e-m:e-p270:32:32-p271:32:32-p272:64:64-i64:64-i128:128-f80:128-n8:16:32:64-S128"
target triple = "x86_64-unknown-linux-gnu"

%"class.Assimp::D3MF::XmlSerializer" = type { %"class.std::vector.3", %"class.std::vector.8", %"class.std::vector.13", %"class.std::map", i32, ptr }
%"class.std::vector.3" = type { %"struct.std::_Vector_base.4" }
%"struct.std::_Vector_base.4" = type { %"struct.std::_Vector_base<Assimp::D3MF::XmlSerializer::MetaEntry, std::allocator<Assimp::D3MF::XmlSerializer::MetaEntry>>::_Vector_impl" }
%"struct.std::_Vector_base<Assimp::D3MF::XmlSerializer::MetaEntry, std::allocator<Assimp::D3MF::XmlSerializer::MetaEntry>>::_Vector_impl" = type { %"struct.std::_Vector_base<Assimp::D3MF::XmlSerializer::MetaEntry, std::allocator<Assimp::D3MF::XmlSerializer::MetaEntry>>::_Vector_impl_data" }
%"struct.std::_Vector_base<Assimp::D3MF::XmlSerializer::MetaEntry, std::allocator<Assimp::D3MF::XmlSerializer::MetaEntry>>::_Vector_impl_data" = type { ptr, ptr, ptr }
%"class.std::vector.8" = type { %"struct.std::_Vector_base.9" }
%"struct.std::_Vector_base.9" = type { %"struct.std::_Vector_base<Assimp::D3MF::EmbeddedTexture *, std::allocator<Assimp::D3MF::EmbeddedTexture *>>::_Vector_impl" }
%"struct.std::_Vector_base<Assimp::D3MF::EmbeddedTexture *, std::allocator<Assimp::D3MF::EmbeddedTexture *>>::_Vector_impl" = type { %"struct.std::_Vector_base<Assimp::D3MF::EmbeddedTexture *, std::allocator<Assimp::D3MF::EmbeddedTexture *>>::_Vector_impl_data" }
%"struct.std::_Vector_base<Assimp::D3MF::EmbeddedTexture *, std::allocator<Assimp::D3MF::EmbeddedTexture *>>::_Vector_impl_data" = type { ptr, ptr, ptr }
%"class.std::vector.13" = type { %"struct.std::_Vector_base.14" }
%"struct.std::_Vector_base.14" = type { %"struct.std::_Vector_base<aiMaterial *, std::allocator<aiMaterial *>>::_Vector_impl" }
%"struct.std::_Vector_base<aiMaterial *, std::allocator<aiMaterial *>>::_Vector_impl" = type { %"struct.std::_Vector_base<aiMaterial *, std::allocator<aiMaterial *>>::_Vector_impl_data" }
%"struct.std::_Vector_base<aiMaterial *, std::allocator<aiMaterial *>>::_Vector_impl_data" = type { ptr, ptr, ptr }
%"class.std::map" = type { %"class.std::_Rb_tree" }
%"class.std::_Rb_tree" = type { %"struct.std::_Rb_tree<unsigned int, std::pair<const unsigned int, Assimp::D3MF::Resource *>, std::_Select1st<std::pair<const unsigned int, Assimp::D3MF::Resource *>>, std::less<unsigned int>>::_Rb_tree_impl" }
%"struct.std::_Rb_tree<unsigned int, std::pair<const unsigned int, Assimp::D3MF::Resource *>, std::_Select1st<std::pair<const unsigned int, Assimp::D3MF::Resource *>>, std::less<unsigned int>>::_Rb_tree_impl" = type { %"struct.std::_Rb_tree_key_compare", %"struct.std::_Rb_tree_header" }
%"struct.std::_Rb_tree_key_compare" = type { %"struct.std::less" }
%"struct.std::less" = type { i8 }
%"struct.std::_Rb_tree_header" = type { %"struct.std::_Rb_tree_node_base", i64 }
%"struct.std::_Rb_tree_node_base" = type { i32, ptr, ptr, ptr }
%struct.aiString = type { i32, [1024 x i8] }
%struct.aiScene = type { i32, ptr, i32, ptr, i32, ptr, i32, ptr, i32, ptr, i32, ptr, i32, ptr, ptr, %struct.aiString, i32, ptr, ptr }

; Function Attrs: mustprogress nounwind uwtable
define linkonce_odr noundef nonnull align 8 dereferenceable(8) ptr @_ZNSt6vectorIP10aiMaterialSaIS1_EEixEm(ptr noundef nonnull align 8 dereferenceable(24) %this, i64 noundef %__n) #0 comdat align 2 {
entry:
  %this.addr = alloca ptr, align 8
  %__n.addr = alloca i64, align 8
  store ptr %this, ptr %this.addr, align 8
  store i64 %__n, ptr %__n.addr, align 8
  %this1 = load ptr, ptr %this.addr, align 8
  %_M_impl = getelementptr inbounds %"struct.std::_Vector_base.14", ptr %this1, i32 0, i32 0
  %_M_start = getelementptr inbounds %"struct.std::_Vector_base<aiMaterial *, std::allocator<aiMaterial *>>::_Vector_impl_data", ptr %_M_impl, i32 0, i32 0
  %0 = load ptr, ptr %_M_start, align 8
  %1 = load i64, ptr %__n.addr, align 8
  %add.ptr = getelementptr inbounds ptr, ptr %0, i64 %1
  ret ptr %add.ptr
}

; Function Attrs: mustprogress nounwind uwtable
define linkonce_odr noundef i64 @_ZNKSt6vectorIP10aiMaterialSaIS1_EE4sizeEv(ptr noundef nonnull align 8 dereferenceable(24) %this) #0 comdat align 2 {
entry:
  %this.addr = alloca ptr, align 8
  store ptr %this, ptr %this.addr, align 8
  %this1 = load ptr, ptr %this.addr, align 8
  %_M_impl = getelementptr inbounds %"struct.std::_Vector_base.14", ptr %this1, i32 0, i32 0
  %_M_finish = getelementptr inbounds %"struct.std::_Vector_base<aiMaterial *, std::allocator<aiMaterial *>>::_Vector_impl_data", ptr %_M_impl, i32 0, i32 1
  %0 = load ptr, ptr %_M_finish, align 8
  %_M_impl2 = getelementptr inbounds %"struct.std::_Vector_base.14", ptr %this1, i32 0, i32 0
  %_M_start = getelementptr inbounds %"struct.std::_Vector_base<aiMaterial *, std::allocator<aiMaterial *>>::_Vector_impl_data", ptr %_M_impl2, i32 0, i32 0
  %1 = load ptr, ptr %_M_start, align 8
  %sub.ptr.lhs.cast = ptrtoint ptr %0 to i64
  %sub.ptr.rhs.cast = ptrtoint ptr %1 to i64
  %sub.ptr.sub = sub i64 %sub.ptr.lhs.cast, %sub.ptr.rhs.cast
  %sub.ptr.div = sdiv exact i64 %sub.ptr.sub, 8
  ret i64 %sub.ptr.div
}

; Function Attrs: mustprogress uwtable
define hidden void @_ZN6Assimp4D3MF13XmlSerializer21StoreMaterialsInSceneEP7aiScene(ptr noundef nonnull align 8 dereferenceable(136) %this, ptr noundef %scene) #2 align 2 {
entry:
  %this.addr = alloca ptr, align 8
  %scene.addr = alloca ptr, align 8
  %i = alloca i64, align 8
  store ptr %this, ptr %this.addr, align 8
  store ptr %scene, ptr %scene.addr, align 8
  %this1 = load ptr, ptr %this.addr, align 8
  %0 = load ptr, ptr %scene.addr, align 8
  %cmp = icmp eq ptr null, %0
  br i1 %cmp, label %if.then, label %if.end

if.then:                                          ; preds = %entry
  br label %for.end

if.end:                                           ; preds = %entry
  %mMaterials = getelementptr inbounds %"class.Assimp::D3MF::XmlSerializer", ptr %this1, i32 0, i32 2
  %call = call noundef i64 @_ZNKSt6vectorIP10aiMaterialSaIS1_EE4sizeEv(ptr noundef nonnull align 8 dereferenceable(24) %mMaterials) #5
  %conv = trunc i64 %call to i32
  %1 = load ptr, ptr %scene.addr, align 8
  %mNumMaterials = getelementptr inbounds %struct.aiScene, ptr %1, i32 0, i32 4
  store i32 %conv, ptr %mNumMaterials, align 8
  %2 = load ptr, ptr %scene.addr, align 8
  %mNumMaterials2 = getelementptr inbounds %struct.aiScene, ptr %2, i32 0, i32 4
  %3 = load i32, ptr %mNumMaterials2, align 8
  %cmp3 = icmp eq i32 %3, 0
  br i1 %cmp3, label %if.then4, label %if.end5

if.then4:                                         ; preds = %if.end
  br label %for.end

if.end5:                                          ; preds = %if.end
  %4 = load ptr, ptr %scene.addr, align 8
  %mNumMaterials6 = getelementptr inbounds %struct.aiScene, ptr %4, i32 0, i32 4
  %5 = load i32, ptr %mNumMaterials6, align 8
  %conv7 = zext i32 %5 to i64
  %6 = call { i64, i1 } @llvm.umul.with.overflow.i64(i64 %conv7, i64 8)
  %7 = extractvalue { i64, i1 } %6, 1
  %8 = extractvalue { i64, i1 } %6, 0
  %9 = select i1 %7, i64 -1, i64 %8
  %call8 = call noalias noundef nonnull ptr @_Znam(i64 noundef %9) #19
  %10 = load ptr, ptr %scene.addr, align 8
  %mMaterials9 = getelementptr inbounds %struct.aiScene, ptr %10, i32 0, i32 5
  store ptr %call8, ptr %mMaterials9, align 8
  store i64 0, ptr %i, align 8
  br label %for.cond

for.cond:                                         ; preds = %for.inc, %if.end5
  %11 = load i64, ptr %i, align 8
  %mMaterials10 = getelementptr inbounds %"class.Assimp::D3MF::XmlSerializer", ptr %this1, i32 0, i32 2
  %call11 = call noundef i64 @_ZNKSt6vectorIP10aiMaterialSaIS1_EE4sizeEv(ptr noundef nonnull align 8 dereferenceable(24) %mMaterials10) #5
  %cmp12 = icmp ult i64 %11, %call11
  br i1 %cmp12, label %for.body, label %for.end

for.body:                                         ; preds = %for.cond
  %mMaterials13 = getelementptr inbounds %"class.Assimp::D3MF::XmlSerializer", ptr %this1, i32 0, i32 2
  %12 = load i64, ptr %i, align 8
  %call14 = call noundef nonnull align 8 dereferenceable(8) ptr @_ZNSt6vectorIP10aiMaterialSaIS1_EEixEm(ptr noundef nonnull align 8 dereferenceable(24) %mMaterials13, i64 noundef %12) #5
  %13 = load ptr, ptr %call14, align 8
  %14 = load ptr, ptr %scene.addr, align 8
  %mMaterials15 = getelementptr inbounds %struct.aiScene, ptr %14, i32 0, i32 5
  %15 = load ptr, ptr %mMaterials15, align 8
  %16 = load i64, ptr %i, align 8
  %arrayidx = getelementptr inbounds ptr, ptr %15, i64 %16
  store ptr %13, ptr %arrayidx, align 8
  br label %for.inc

for.inc:                                          ; preds = %for.body
  %17 = load i64, ptr %i, align 8
  %inc = add i64 %17, 1
  store i64 %inc, ptr %i, align 8
  br label %for.cond, !llvm.loop !9

for.end:                                          ; preds = %for.cond, %if.then4, %if.then
  ret void
}