; Function Attrs: mustprogress uwtable
define hidden void @_ZN6Assimp4D3MF13XmlSerializer21StoreMaterialsInSceneEP7aiScene(ptr nocapture noundef nonnull readonly align 8 dereferenceable(136) %this, ptr noundef %scene) local_unnamed_addr #4 align 2 {
entry:
  %cmp = icmp eq ptr %scene, null
  br i1 %cmp, label %for.end, label %if.end

if.end:                                           ; preds = %entry
  %mMaterials = getelementptr inbounds i8, ptr %this, i64 48
  %_M_finish.i = getelementptr inbounds i8, ptr %this, i64 56
  %0 = load ptr, ptr %_M_finish.i, align 8
  %1 = load ptr, ptr %mMaterials, align 8
  %sub.ptr.lhs.cast.i = ptrtoint ptr %0 to i64
  %sub.ptr.rhs.cast.i = ptrtoint ptr %1 to i64
  %sub.ptr.sub.i = sub i64 %sub.ptr.lhs.cast.i, %sub.ptr.rhs.cast.i
  %sub.ptr.div.i = lshr exact i64 %sub.ptr.sub.i, 3
  %conv = trunc i64 %sub.ptr.div.i to i32
  %mNumMaterials = getelementptr inbounds i8, ptr %scene, i64 32
  store i32 %conv, ptr %mNumMaterials, align 8
  %cmp3 = icmp eq i32 %conv, 0
  br i1 %cmp3, label %for.end, label %if.end5

if.end5:                                          ; preds = %if.end
  %2 = and i64 %sub.ptr.sub.i, 34359738360
  %call8 = tail call noalias noundef nonnull ptr @_Znam(i64 noundef %2) #26
  %mMaterials9 = getelementptr inbounds i8, ptr %scene, i64 40
  store ptr %call8, ptr %mMaterials9, align 8
  %3 = load ptr, ptr %_M_finish.i, align 8
  %4 = load ptr, ptr %mMaterials, align 8
  %cmp1218.not = icmp eq ptr %3, %4
  br i1 %cmp1218.not, label %for.end, label %for.body

for.body:                                         ; preds = %if.end5, %for.body
  %5 = phi ptr [ %9, %for.body ], [ %4, %if.end5 ]
  %i.019 = phi i64 [ %inc, %for.body ], [ 0, %if.end5 ]
  %add.ptr.i = getelementptr inbounds ptr, ptr %5, i64 %i.019
  %6 = load ptr, ptr %add.ptr.i, align 8
  %7 = load ptr, ptr %mMaterials9, align 8
  %arrayidx = getelementptr inbounds ptr, ptr %7, i64 %i.019
  store ptr %6, ptr %arrayidx, align 8
  %inc = add nuw i64 %i.019, 1
  %8 = load ptr, ptr %_M_finish.i, align 8
  %9 = load ptr, ptr %mMaterials, align 8
  %sub.ptr.lhs.cast.i10 = ptrtoint ptr %8 to i64
  %sub.ptr.rhs.cast.i11 = ptrtoint ptr %9 to i64
  %sub.ptr.sub.i12 = sub i64 %sub.ptr.lhs.cast.i10, %sub.ptr.rhs.cast.i11
  %sub.ptr.div.i13 = ashr exact i64 %sub.ptr.sub.i12, 3
  %cmp12 = icmp ult i64 %inc, %sub.ptr.div.i13
  br i1 %cmp12, label %for.body, label %for.end, !llvm.loop !12

for.end:                                          ; preds = %for.body, %if.end5, %if.end, %entry
  ret void
}